(lp0
(lp1
S''
p2
ag2
aS'0'
p3
aS'0.0'
p4
aS'200'
p5
aS'5'
p6
aS'1'
p7
aS'0.0'
p8
aS'0.0'
p9
aS'0.0'
p10
aa(lp11
S'101.694915254'
p12
aS'0.00983333333333'
p13
aS'0.01'
p14
aS'100'
p15
aS'10'
p16
ag6
aS'1.5'
p17
aS'0.0'
p18
aS'0.01'
p19
aS'100.0'
p20
aa(lp21
g2
ag2
aS'-0.01'
p22
aS'-100'
p23
aS'200.0'
p24
ag6
ag7
aS'0.0'
p25
aS'-0.01'
p26
aS'-100.0'
p27
aa(lp28
g2
ag2
ag2
ag2
ag2
ag2
ag2
ag2
ag2
ag2
aa(lp29
g2
ag2
ag2
ag2
ag2
ag2
ag2
ag2
ag2
ag2
aa(lp30
g2
ag2
ag2
ag2
ag2
ag2
ag2
ag2
ag2
ag2
aa(lp31
g2
ag2
ag2
ag2
ag2
ag2
ag2
ag2
ag2
ag2
aa(lp32
g2
ag2
ag2
ag2
ag2
ag2
ag2
ag2
ag2
ag2
aa(lp33
g2
ag2
ag2
ag2
ag2
ag2
ag2
ag2
ag2
ag2
aa(lp34
g2
ag2
ag2
ag2
ag2
ag2
ag2
ag2
ag2
ag2
aa(lp35
g2
ag2
ag2
ag2
ag2
ag2
ag2
ag2
ag2
ag2
aa(lp36
g2
ag2
ag2
ag2
ag2
ag2
ag2
ag2
ag2
ag2
aa(lp37
g2
ag2
ag2
ag2
ag2
ag2
ag2
ag2
ag2
ag2
aa(lp38
g2
ag2
ag2
ag2
ag2
ag2
ag2
ag2
ag2
ag2
aa(lp39
g2
ag2
ag2
ag2
ag2
ag2
ag2
ag2
ag2
ag2
aa(lp40
g2
ag2
ag2
ag2
ag2
ag2
ag2
ag2
ag2
ag2
aa(lp41
g2
ag2
ag2
ag2
ag2
ag2
ag2
ag2
ag2
ag2
aa(lp42
g2
ag2
ag2
ag2
ag2
ag2
ag2
ag2
ag2
ag2
aa(lp43
g2
ag2
ag2
ag2
ag2
ag2
ag2
ag2
ag2
ag2
aa(lp44
g2
ag2
ag2
ag2
ag2
ag2
ag2
ag2
ag2
ag2
aa(lp45
g2
ag2
ag2
ag2
ag2
ag2
ag2
ag2
ag2
ag2
aa(lp46
g2
ag2
ag2
ag2
ag2
ag2
ag2
ag2
ag2
ag2
aa(lp47
g2
ag2
ag2
ag2
ag2
ag2
ag2
ag2
ag2
ag2
aa(lp48
g2
ag2
ag2
ag2
ag2
ag2
ag2
ag2
ag2
ag2
aa(lp49
g2
ag2
ag2
ag2
ag2
ag2
ag2
ag2
ag2
ag2
aa(lp50
g2
ag2
ag2
ag2
ag2
ag2
ag2
ag2
ag2
ag2
aa(lp51
g2
ag2
ag2
ag2
ag2
ag2
ag2
ag2
ag2
ag2
aa(lp52
g2
ag2
ag2
ag2
ag2
ag2
ag2
ag2
ag2
ag2
aa(lp53
g2
ag2
ag2
ag2
ag2
ag2
ag2
ag2
ag2
ag2
aa(lp54
g2
ag2
ag2
ag2
ag2
ag2
ag2
ag2
ag2
ag2
aa(lp55
g2
ag2
ag2
ag2
ag2
ag2
ag2
ag2
ag2
ag2
aa(lp56
g2
ag2
ag2
ag2
ag2
ag2
ag2
ag2
ag2
ag2
aa(lp57
g2
ag2
ag2
ag2
ag2
ag2
ag2
ag2
ag2
ag2
aa(lp58
g2
ag2
ag2
ag2
ag2
ag2
ag2
ag2
ag2
ag2
aa(lp59
g2
ag2
ag2
ag2
ag2
ag2
ag2
ag2
ag2
ag2
aa(lp60
g2
ag2
ag2
ag2
ag2
ag2
ag2
ag2
ag2
ag2
aa(lp61
g2
ag2
ag2
ag2
ag2
ag2
ag2
ag2
ag2
ag2
aa(lp62
g2
ag2
ag2
ag2
ag2
ag2
ag2
ag2
ag2
ag2
aa(lp63
g2
ag2
ag2
ag2
ag2
ag2
ag2
ag2
ag2
ag2
aa(lp64
g2
ag2
ag2
ag2
ag2
ag2
ag2
ag2
ag2
ag2
aa.