(lp0
(lp1
S''
p2
ag2
aS'0'
p3
aS'0.0'
p4
aS'20'
p5
aS'1.0'
p6
aS'1'
p7
aS'0.0'
p8
aS'0.0'
p9
aS'0.0'
p10
aa(lp11
S'14.91546208'
p12
aS'0.0670445202862'
p13
aS'0.0641171134123'
p14
aS'15.5964600834'
p15
ag3
aS'5'
p16
aS'1.522828592228'
p17
aS'0.0'
p18
aS'0.0641171134123'
p19
aS'15.5964600834'
p20
aa(lp21
g2
ag2
aS'-0.0641171134123'
p22
aS'-15.5964600834'
p23
aS'50.16687548'
p24
ag16
ag7
aS'0.0'
p25
aS'-0.0641171134123'
p26
aS'-15.5964600834'
p27
aa(lp28
S'-9.96455522582'
p29
aS'-0.100355708543'
p30
aS'-0.0959738165901'
p31
aS'-10.4195085236'
p32
ag3
ag16
aS'1.522828592228'
p33
aS'0.0'
p34
aS'-0.0959738165901'
p35
aS'-10.4195085236'
p36
aa(lp37
g2
ag2
aS'0.0959738122017'
p38
aS'10.419509'
p39
aS'57.9718636062'
p40
ag16
ag7
aS'0.0'
p41
aS'0.0959738122017'
p42
aS'10.419509'
p43
aa(lp44
g2
ag2
ag2
ag2
ag2
ag2
ag2
ag2
ag2
ag2
aa(lp45
g2
ag2
ag2
ag2
ag2
ag2
ag2
ag2
ag2
ag2
aa(lp46
g2
ag2
ag2
ag2
ag2
ag2
ag2
ag2
ag2
ag2
aa(lp47
g2
ag2
ag2
ag2
ag2
ag2
ag2
ag2
ag2
ag2
aa(lp48
g2
ag2
ag2
ag2
ag2
ag2
ag2
ag2
ag2
ag2
aa(lp49
g2
ag2
ag2
ag2
ag2
ag2
ag2
ag2
ag2
ag2
aa(lp50
g2
ag2
ag2
ag2
ag2
ag2
ag2
ag2
ag2
ag2
aa(lp51
g2
ag2
ag2
ag2
ag2
ag2
ag2
ag2
ag2
ag2
aa(lp52
g2
ag2
ag2
ag2
ag2
ag2
ag2
ag2
ag2
ag2
aa(lp53
g2
ag2
ag2
ag2
ag2
ag2
ag2
ag2
ag2
ag2
aa(lp54
g2
ag2
ag2
ag2
ag2
ag2
ag2
ag2
ag2
ag2
aa(lp55
g2
ag2
ag2
ag2
ag2
ag2
ag2
ag2
ag2
ag2
aa(lp56
g2
ag2
ag2
ag2
ag2
ag2
ag2
ag2
ag2
ag2
aa(lp57
g2
ag2
ag2
ag2
ag2
ag2
ag2
ag2
ag2
ag2
aa(lp58
g2
ag2
ag2
ag2
ag2
ag2
ag2
ag2
ag2
ag2
aa(lp59
g2
ag2
ag2
ag2
ag2
ag2
ag2
ag2
ag2
ag2
aa(lp60
g2
ag2
ag2
ag2
ag2
ag2
ag2
ag2
ag2
ag2
aa(lp61
g2
ag2
ag2
ag2
ag2
ag2
ag2
ag2
ag2
ag2
aa(lp62
g2
ag2
ag2
ag2
ag2
ag2
ag2
ag2
ag2
ag2
aa(lp63
g2
ag2
ag2
ag2
ag2
ag2
ag2
ag2
ag2
ag2
aa(lp64
g2
ag2
ag2
ag2
ag2
ag2
ag2
ag2
ag2
ag2
aa(lp65
g2
ag2
ag2
ag2
ag2
ag2
ag2
ag2
ag2
ag2
aa(lp66
g2
ag2
ag2
ag2
ag2
ag2
ag2
ag2
ag2
ag2
aa(lp67
g2
ag2
ag2
ag2
ag2
ag2
ag2
ag2
ag2
ag2
aa(lp68
g2
ag2
ag2
ag2
ag2
ag2
ag2
ag2
ag2
ag2
aa(lp69
g2
ag2
ag2
ag2
ag2
ag2
ag2
ag2
ag2
ag2
aa(lp70
g2
ag2
ag2
ag2
ag2
ag2
ag2
ag2
ag2
ag2
aa(lp71
g2
ag2
ag2
ag2
ag2
ag2
ag2
ag2
ag2
ag2
aa(lp72
g2
ag2
ag2
ag2
ag2
ag2
ag2
ag2
ag2
ag2
aa(lp73
g2
ag2
ag2
ag2
ag2
ag2
ag2
ag2
ag2
ag2
aa(lp74
g2
ag2
ag2
ag2
ag2
ag2
ag2
ag2
ag2
ag2
aa(lp75
g2
ag2
ag2
ag2
ag2
ag2
ag2
ag2
ag2
ag2
aa(lp76
g2
ag2
ag2
ag2
ag2
ag2
ag2
ag2
ag2
ag2
aa(lp77
g2
ag2
ag2
ag2
ag2
ag2
ag2
ag2
ag2
ag2
aa(lp78
g2
ag2
ag2
ag2
ag2
ag2
ag2
ag2
ag2
ag2
aa.