(lp0
(lp1
S''
p2
ag2
aS'0'
p3
ag3
aS'20'
p4
aS'1.0'
p5
aS'1'
p6
aS'0.0'
p7
aS'0.0'
p8
aS'0.0'
p9
aa(lp10
S'-20.6605193193'
p11
aS'-0.0484014939095'
p12
aS'0.00189311474168'
p13
aS'528.23'
p14
aS'1.2'
p15
aS'6.25'
p16
aS'1.74799'
p17
aS'0.0'
p18
aS'0.00189311474168'
p19
aS'528.230000001'
p20
aa(lp21
S'13.0660460809'
p22
aS'0.0765342471479'
p23
aS'0.0666666666667'
p24
aS'15'
p25
aS'4.5'
p26
aS'6.25'
p27
aS'1.6271035'
p28
aS'0.0'
p29
aS'0.0666666666667'
p30
aS'15.0'
p31
aa(lp32
g2
ag2
aS'-0.0626174076393'
p33
aS'-15.97'
p34
aS'31.336957581876'
p35
aS'6.25'
p36
ag6
aS'0.0'
p37
aS'-0.0626174076393'
p38
aS'-15.97'
p39
aa(lp40
S'71.2026880629'
p41
aS'0.0140444135918'
p42
aS'0.0135189941868'
p43
aS'73.97'
p44
aS'2.8'
p45
aS'6'
p46
aS'1.52283'
p47
aS'0.0'
p48
aS'0.0135189941868'
p49
aS'73.9700000002'
p50
aa(lp51
g2
ag2
aS'-0.0135189941868'
p52
aS'-73.97'
p53
aS'88.2740060288464'
p54
ag46
ag6
aS'0.0'
p55
aS'-0.0135189941868'
p56
aS'-73.9700000002'
p57
aa(lp58
S'71.2026880629'
p59
aS'0.0140444135918'
p60
aS'0.0135189941868'
p61
aS'73.97'
p62
aS'2.8'
p63
ag46
aS'1.52283'
p64
aS'0.0'
p65
aS'0.0135189941868'
p66
aS'73.9700000002'
p67
aa(lp68
g2
ag2
aS'-0.0135189941868'
p69
aS'-73.97'
p70
aS'16.0890091533476'
p71
ag46
ag6
aS'0.0'
p72
aS'-0.0135189941868'
p73
aS'-73.9700000002'
p74
aa(lp75
S'-11.6422621576'
p76
aS'-0.0858939599939'
p77
aS'-0.0513610683102'
p78
aS'-19.47'
p79
aS'3'
p80
ag46
aS'1.80834'
p81
aS'0.0'
p82
aS'-0.0513610683102'
p83
aS'-19.47'
p84
aa(lp85
g2
ag2
aS'0.0513610683102'
p86
aS'19.47'
p87
aS'73.0252264141'
p88
ag46
ag6
aS'0.0'
p89
aS'0.0513610683102'
p90
aS'19.47'
p91
aa(lp92
g2
ag2
ag2
ag2
ag2
ag2
ag2
ag2
ag2
ag2
aa(lp93
g2
ag2
ag2
ag2
ag2
ag2
ag2
ag2
ag2
ag2
aa(lp94
g2
ag2
ag2
ag2
ag2
ag2
ag2
ag2
ag2
ag2
aa(lp95
g2
ag2
ag2
ag2
ag2
ag2
ag2
ag2
ag2
ag2
aa(lp96
g2
ag2
ag2
ag2
ag2
ag2
ag2
ag2
ag2
ag2
aa(lp97
g2
ag2
ag2
ag2
ag2
ag2
ag2
ag2
ag2
ag2
aa(lp98
g2
ag2
ag2
ag2
ag2
ag2
ag2
ag2
ag2
ag2
aa(lp99
g2
ag2
ag2
ag2
ag2
ag2
ag2
ag2
ag2
ag2
aa(lp100
g2
ag2
ag2
ag2
ag2
ag2
ag2
ag2
ag2
ag2
aa(lp101
g2
ag2
ag2
ag2
ag2
ag2
ag2
ag2
ag2
ag2
aa(lp102
g2
ag2
ag2
ag2
ag2
ag2
ag2
ag2
ag2
ag2
aa(lp103
g2
ag2
ag2
ag2
ag2
ag2
ag2
ag2
ag2
ag2
aa(lp104
g2
ag2
ag2
ag2
ag2
ag2
ag2
ag2
ag2
ag2
aa(lp105
g2
ag2
ag2
ag2
ag2
ag2
ag2
ag2
ag2
ag2
aa(lp106
g2
ag2
ag2
ag2
ag2
ag2
ag2
ag2
ag2
ag2
aa(lp107
g2
ag2
ag2
ag2
ag2
ag2
ag2
ag2
ag2
ag2
aa(lp108
g2
ag2
ag2
ag2
ag2
ag2
ag2
ag2
ag2
ag2
aa(lp109
g2
ag2
ag2
ag2
ag2
ag2
ag2
ag2
ag2
ag2
aa(lp110
g2
ag2
ag2
ag2
ag2
ag2
ag2
ag2
ag2
ag2
aa(lp111
g2
ag2
ag2
ag2
ag2
ag2
ag2
ag2
ag2
ag2
aa(lp112
g2
ag2
ag2
ag2
ag2
ag2
ag2
ag2
ag2
ag2
aa(lp113
g2
ag2
ag2
ag2
ag2
ag2
ag2
ag2
ag2
ag2
aa(lp114
g2
ag2
ag2
ag2
ag2
ag2
ag2
ag2
ag2
ag2
aa(lp115
g2
ag2
ag2
ag2
ag2
ag2
ag2
ag2
ag2
ag2
aa(lp116
g2
ag2
ag2
ag2
ag2
ag2
ag2
ag2
ag2
ag2
aa(lp117
g2
ag2
ag2
ag2
ag2
ag2
ag2
ag2
ag2
ag2
aa(lp118
g2
ag2
ag2
ag2
ag2
ag2
ag2
ag2
ag2
ag2
aa(lp119
g2
ag2
ag2
ag2
ag2
ag2
ag2
ag2
ag2
ag2
aa(lp120
g2
ag2
ag2
ag2
ag2
ag2
ag2
ag2
ag2
ag2
aa(lp121
g2
ag2
ag2
ag2
ag2
ag2
ag2
ag2
ag2
ag2
aa.